/*
 * Intel ACPI Component Architecture
 * AML/ASL+ Disassembler version 20180427 (64-bit version)(RM)
 * Copyright (c) 2000 - 2018 Intel Corporation
 * 
 * Disassembly of FPDT.aml, Sun Nov 24 01:46:19 2019
 *
 * ACPI Data Table [FPDT]
 *
 * Format: [HexOffset DecimalOffset ByteLength]  FieldName : FieldValue
 */

[000h 0000   4]                    Signature : "FPDT"    [Firmware Performance Data Table]
[004h 0004   4]                 Table Length : 00000044
[008h 0008   1]                     Revision : 01
[009h 0009   1]                     Checksum : 21
[00Ah 0010   6]                       Oem ID : "INSYDE"
[010h 0016   8]                 Oem Table ID : "CML-ULT"
[018h 0024   4]                 Oem Revision : 00000002
[01Ch 0028   4]              Asl Compiler ID : "    "
[020h 0032   4]        Asl Compiler Revision : 01000013


[024h 0036   2]                Subtable Type : 0000
[026h 0038   1]                       Length : 10
[027h 0039   1]                     Revision : 01
[028h 0040   4]                     Reserved : 00000000
[02Ch 0044   8]     FPDT Boot Record Address : 000000006E67F000

[034h 0052   2]                Subtable Type : 0001
[036h 0054   1]                       Length : 10
[037h 0055   1]                     Revision : 01
[038h 0056   4]                     Reserved : 00000000
[03Ch 0060   8]          S3PT Record Address : 000000006ED6E000

Raw Table Data: Length 68 (0x44)

  0000: 46 50 44 54 44 00 00 00 01 21 49 4E 53 59 44 45  // FPDTD....!INSYDE
  0010: 43 4D 4C 2D 55 4C 54 00 02 00 00 00 20 20 20 20  // CML-ULT.....    
  0020: 13 00 00 01 00 00 10 01 00 00 00 00 00 F0 67 6E  // ..............gn
  0030: 00 00 00 00 01 00 10 01 00 00 00 00 00 E0 D6 6E  // ...............n
  0040: 00 00 00 00                                      // ....
